target datalayout = "e-m:e-p270:32:32-p271:32:32-p272:64:64-i64:64-i128:128-f80:128-n8:16:32:64-S128"
target triple = "x86_64-pc-linux-gnu"

%"class.clang::SourceLocation" = type { i32 }
%"class.llvm::SmallVectorBase" = type { ptr, i32, i32 }
%"class.clang::ASTStmtReader" = type <{ ptr, ptr, %"class.std::optional", [4 x i8] }>
%"class.std::optional" = type { %"struct.std::_Optional_base" }
%"struct.std::_Optional_base" = type { %"struct.std::_Optional_payload" }
%"struct.std::_Optional_payload" = type { %"struct.std::_Optional_payload_base.base", [3 x i8] }
%"struct.std::_Optional_payload_base.base" = type <{ %"union.std::_Optional_payload_base<clang::BitsUnpacker>::_Storage", i8 }>
%"union.std::_Optional_payload_base<clang::BitsUnpacker>::_Storage" = type { %"class.clang::BitsUnpacker" }
%"class.clang::BitsUnpacker" = type { i32, i32 }
%"class.clang::Stmt" = type { %union.anon.9 }
%union.anon.9 = type { %"class.clang::Stmt::PseudoObjectExprBitfields" }
%"class.clang::Stmt::PseudoObjectExprBitfields" = type { i64 }
%"class.clang::ASTRecordReader" = type { %"class.clang::serialization::DataStreamBasicReader", ptr, ptr, i32, %"class.llvm::SmallVector.4" }
%"class.clang::serialization::DataStreamBasicReader" = type { %"class.clang::serialization::BasicReaderBase" }
%"class.clang::serialization::BasicReaderBase" = type { ptr }
%"class.llvm::SmallVector.4" = type { %"class.llvm::SmallVectorImpl.5", %"struct.llvm::SmallVectorStorage.8" }
%"class.llvm::SmallVectorImpl.5" = type { %"class.llvm::SmallVectorTemplateBase.6" }
%"class.llvm::SmallVectorTemplateBase.6" = type { %"class.llvm::SmallVectorTemplateCommon.7" }
%"class.llvm::SmallVectorTemplateCommon.7" = type { %"class.llvm::SmallVectorBase" }
%"struct.llvm::SmallVectorStorage.8" = type { [512 x i8] }
%"class.clang::OMPExecutableDirective" = type { %"class.clang::Stmt", i32, %"class.clang::SourceLocation", %"class.clang::SourceLocation", ptr }
%"class.clang::OMPLoopBasedDirective.base" = type <{ %"class.clang::OMPExecutableDirective", i32 }>
%"class.clang::OMPLoopDirective.base" = type { %"class.clang::OMPLoopBasedDirective.base" }
%"class.clang::OMPParallelMaskedTaskLoopDirective" = type { %"class.clang::OMPLoopDirective.base", i8, [3 x i8] }

; Function Attrs: mustprogress nounwind uwtable
define linkonce_odr hidden noundef ptr @_ZN4llvm25SmallVectorTemplateCommonImvE5beginEv(ptr noundef nonnull align 8 dereferenceable(16) %0) #0 comdat align 2 {
  %2 = alloca ptr, align 8
  store ptr %0, ptr %2, align 8
  %3 = load ptr, ptr %2, align 8
  %4 = getelementptr inbounds nuw %"class.llvm::SmallVectorBase", ptr %3, i32 0, i32 0
  %5 = load ptr, ptr %4, align 8
  ret ptr %5
}

; Function Attrs: mustprogress nounwind uwtable
define linkonce_odr hidden noundef nonnull align 8 dereferenceable(8) ptr @_ZN4llvm25SmallVectorTemplateCommonImvEixEm(ptr noundef nonnull align 8 dereferenceable(16) %0, i64 noundef %1) #0 comdat align 2 {
  %3 = alloca ptr, align 8
  %4 = alloca i64, align 8
  store ptr %0, ptr %3, align 8
  store i64 %1, ptr %4, align 8
  %5 = load ptr, ptr %3, align 8
  %6 = call noundef ptr @_ZN4llvm25SmallVectorTemplateCommonImvE5beginEv(ptr noundef nonnull align 8 dereferenceable(16) %5)
  %7 = load i64, ptr %4, align 8
  %8 = getelementptr inbounds i64, ptr %6, i64 %7
  ret ptr %8
}

; Function Attrs: mustprogress nounwind uwtable
define linkonce_odr hidden void @_ZN5clang15ASTRecordReader8skipIntsEj(ptr noundef nonnull align 8 dereferenceable(560) %0, i32 noundef %1) #0 comdat align 2 {
  %3 = alloca ptr, align 8
  %4 = alloca i32, align 4
  store ptr %0, ptr %3, align 8
  store i32 %1, ptr %4, align 4
  %5 = load ptr, ptr %3, align 8
  %6 = load i32, ptr %4, align 4
  %7 = getelementptr inbounds nuw %"class.clang::ASTRecordReader", ptr %5, i32 0, i32 3
  %8 = load i32, ptr %7, align 8
  %9 = add i32 %8, %6
  store i32 %9, ptr %7, align 8
  ret void
}

; Function Attrs: mustprogress nounwind uwtable
define dso_local void @_ZN5clang13ASTStmtReader9VisitStmtEPNS_4StmtE(ptr noundef nonnull align 8 dereferenceable(28) %0, ptr noundef %1) #0 align 2 {
  %3 = alloca ptr, align 8
  %4 = alloca ptr, align 8
  store ptr %0, ptr %3, align 8
  store ptr %1, ptr %4, align 8
  ret void
}

; Function Attrs: mustprogress nounwind uwtable
define linkonce_odr hidden noundef i64 @_ZN5clang15ASTRecordReader7readIntEv(ptr noundef nonnull align 8 dereferenceable(560) %0) #0 comdat align 2 {
  %2 = alloca ptr, align 8
  store ptr %0, ptr %2, align 8
  %3 = load ptr, ptr %2, align 8
  %4 = getelementptr inbounds nuw %"class.clang::ASTRecordReader", ptr %3, i32 0, i32 4
  %5 = getelementptr inbounds nuw %"class.clang::ASTRecordReader", ptr %3, i32 0, i32 3
  %6 = load i32, ptr %5, align 8
  %7 = add i32 %6, 1
  store i32 %7, ptr %5, align 8
  %8 = zext i32 %6 to i64
  %9 = call noundef nonnull align 8 dereferenceable(8) ptr @_ZN4llvm25SmallVectorTemplateCommonImvEixEm(ptr noundef nonnull align 8 dereferenceable(16) %4, i64 noundef %8)
  %10 = load i64, ptr %9, align 8
  ret i64 %10
}

; Function Attrs: mustprogress nounwind uwtable
define dso_local void @_ZN5clang13ASTStmtReader26VisitOMPLoopBasedDirectiveEPNS_21OMPLoopBasedDirectiveE(ptr noundef nonnull align 8 dereferenceable(28) %0, ptr noundef %1) #0 align 2 {
  %3 = alloca ptr, align 8
  %4 = alloca ptr, align 8
  store ptr %0, ptr %3, align 8
  store ptr %1, ptr %4, align 8
  %5 = load ptr, ptr %3, align 8
  %6 = load ptr, ptr %4, align 8
  call void @_ZN5clang13ASTStmtReader9VisitStmtEPNS_4StmtE(ptr noundef nonnull align 8 dereferenceable(28) %5, ptr noundef %6)
  %7 = getelementptr inbounds nuw %"class.clang::ASTStmtReader", ptr %5, i32 0, i32 0
  %8 = load ptr, ptr %7, align 8
  call void @_ZN5clang15ASTRecordReader8skipIntsEj(ptr noundef nonnull align 8 dereferenceable(560) %8, i32 noundef 1)
  %9 = load ptr, ptr %4, align 8
  call void @_ZN5clang13ASTStmtReader27VisitOMPExecutableDirectiveEPNS_22OMPExecutableDirectiveE(ptr noundef nonnull align 8 dereferenceable(28) %5, ptr noundef %9)
  ret void
}

; Function Attrs: mustprogress nounwind uwtable
define linkonce_odr hidden void @_ZN5clang34OMPParallelMaskedTaskLoopDirective12setHasCancelEb(ptr noundef nonnull align 8 dereferenceable(40) %0, i1 noundef zeroext %1) #0 comdat align 2 {
  %3 = alloca ptr, align 8
  %4 = alloca i8, align 1
  store ptr %0, ptr %3, align 8
  %5 = zext i1 %1 to i8
  store i8 %5, ptr %4, align 1
  %6 = load ptr, ptr %3, align 8
  %7 = load i8, ptr %4, align 1
  %8 = trunc i8 %7 to i1
  %9 = getelementptr inbounds nuw %"class.clang::OMPParallelMaskedTaskLoopDirective", ptr %6, i32 0, i32 1
  %10 = zext i1 %8 to i8
  store i8 %10, ptr %9, align 4
  ret void
}

; Function Attrs: mustprogress nounwind uwtable
define linkonce_odr hidden noundef zeroext i1 @_ZN5clang15ASTRecordReader8readBoolEv(ptr noundef nonnull align 8 dereferenceable(560) %0) #0 comdat align 2 {
  %2 = alloca ptr, align 8
  store ptr %0, ptr %2, align 8
  %3 = load ptr, ptr %2, align 8
  %4 = call noundef i64 @_ZN5clang15ASTRecordReader7readIntEv(ptr noundef nonnull align 8 dereferenceable(560) %3)
  %5 = icmp ne i64 %4, 0
  ret i1 %5
}

; Function Attrs: mustprogress nounwind uwtable
define dso_local void @_ZN5clang13ASTStmtReader21VisitOMPLoopDirectiveEPNS_16OMPLoopDirectiveE(ptr noundef nonnull align 8 dereferenceable(28) %0, ptr noundef %1) #0 align 2 {
  %3 = alloca ptr, align 8
  %4 = alloca ptr, align 8
  store ptr %0, ptr %3, align 8
  store ptr %1, ptr %4, align 8
  %5 = load ptr, ptr %3, align 8
  %6 = load ptr, ptr %4, align 8
  call void @_ZN5clang13ASTStmtReader26VisitOMPLoopBasedDirectiveEPNS_21OMPLoopBasedDirectiveE(ptr noundef nonnull align 8 dereferenceable(28) %5, ptr noundef %6)
  ret void
}

; Function Attrs: mustprogress nounwind uwtable
define dso_local void @_ZN5clang13ASTStmtReader39VisitOMPParallelMaskedTaskLoopDirectiveEPNS_34OMPParallelMaskedTaskLoopDirectiveE(ptr noundef nonnull align 8 dereferenceable(28) %0, ptr noundef %1) #0 align 2 {
  %3 = alloca ptr, align 8
  %4 = alloca ptr, align 8
  store ptr %0, ptr %3, align 8
  store ptr %1, ptr %4, align 8
  %5 = load ptr, ptr %3, align 8
  %6 = load ptr, ptr %4, align 8
  call void @_ZN5clang13ASTStmtReader21VisitOMPLoopDirectiveEPNS_16OMPLoopDirectiveE(ptr noundef nonnull align 8 dereferenceable(28) %5, ptr noundef %6)
  %7 = load ptr, ptr %4, align 8
  %8 = getelementptr inbounds nuw %"class.clang::ASTStmtReader", ptr %5, i32 0, i32 0
  %9 = load ptr, ptr %8, align 8
  %10 = call noundef zeroext i1 @_ZN5clang15ASTRecordReader8readBoolEv(ptr noundef nonnull align 8 dereferenceable(560) %9)
  call void @_ZN5clang34OMPParallelMaskedTaskLoopDirective12setHasCancelEb(ptr noundef nonnull align 8 dereferenceable(40) %7, i1 noundef zeroext %10)
  ret void
}